target datalayout = "e-m:e-p270:32:32-p271:32:32-p272:64:64-i64:64-i128:128-f80:128-n8:16:32:64-S128"
target triple = "x86_64-pc-linux-gnu"

%struct.ssl_st = type { i32, i16, i16, ptr, ptr, ptr, ptr, ptr, i32, i32, ptr, ptr, i32, i32, ptr, ptr, ptr, ptr, ptr, ptr, ptr, ptr, i32, i32, [32 x i8], ptr, ptr, ptr, ptr, ptr, ptr, ptr, i64, %struct.crypto_ex_data_st, ptr, i32, i32, i32, i32, i16, ptr, i32, i64, ptr, ptr, ptr, ptr, ptr, ptr, i32, i32, ptr, ptr, i8, i8, i32 }
%struct.crypto_ex_data_st = type { ptr }
%struct.cert_st = type { ptr, ptr, ptr, ptr, i32, i32, ptr, ptr, ptr, i64, ptr, i64, ptr, ptr, ptr }
%struct.ssl_private_key_method_st = type { ptr, ptr, ptr, ptr, ptr, ptr }

; Function Attrs: nounwind uwtable
define hidden i32 @ssl_private_key_sign(ptr noundef %0, ptr noundef %1, ptr noundef %2, i64 noundef %3, ptr noundef %4, ptr noundef %5, i64 noundef %6) #0 {
  %8 = alloca i32, align 4
  %9 = alloca ptr, align 8
  %10 = alloca ptr, align 8
  %11 = alloca ptr, align 8
  %12 = alloca i64, align 8
  %13 = alloca ptr, align 8
  %14 = alloca ptr, align 8
  %15 = alloca i64, align 8
  %16 = alloca i32, align 4
  %17 = alloca ptr, align 8
  %18 = alloca i64, align 8
  store ptr %0, ptr %9, align 8, !tbaa !6
  store ptr %1, ptr %10, align 8, !tbaa !53
  store ptr %2, ptr %11, align 8, !tbaa !71
  store i64 %3, ptr %12, align 8, !tbaa !54
  store ptr %4, ptr %13, align 8, !tbaa !73
  store ptr %5, ptr %14, align 8, !tbaa !53
  store i64 %6, ptr %15, align 8, !tbaa !54
  %19 = load ptr, ptr %9, align 8, !tbaa !6
  %20 = getelementptr inbounds nuw %struct.ssl_st, ptr %19, i32 0, i32 21
  %21 = load ptr, ptr %20, align 8, !tbaa !13
  %22 = getelementptr inbounds nuw %struct.cert_st, ptr %21, i32 0, i32 3
  %23 = load ptr, ptr %22, align 8, !tbaa !64
  %24 = icmp ne ptr %23, null
  br i1 %24, label %25, label %41

25:                                               ; preds = %7
  %26 = load ptr, ptr %9, align 8, !tbaa !6
  %27 = getelementptr inbounds nuw %struct.ssl_st, ptr %26, i32 0, i32 21
  %28 = load ptr, ptr %27, align 8, !tbaa !13
  %29 = getelementptr inbounds nuw %struct.cert_st, ptr %28, i32 0, i32 3
  %30 = load ptr, ptr %29, align 8, !tbaa !64
  %31 = getelementptr inbounds nuw %struct.ssl_private_key_method_st, ptr %30, i32 0, i32 2
  %32 = load ptr, ptr %31, align 8, !tbaa !75
  %33 = load ptr, ptr %9, align 8, !tbaa !6
  %34 = load ptr, ptr %10, align 8, !tbaa !53
  %35 = load ptr, ptr %11, align 8, !tbaa !71
  %36 = load i64, ptr %12, align 8, !tbaa !54
  %37 = load ptr, ptr %13, align 8, !tbaa !73
  %38 = load ptr, ptr %14, align 8, !tbaa !53
  %39 = load i64, ptr %15, align 8, !tbaa !54
  %40 = call i32 %32(ptr noundef %33, ptr noundef %34, ptr noundef %35, i64 noundef %36, ptr noundef %37, ptr noundef %38, i64 noundef %39)
  store i32 %40, ptr %8, align 4
  br label %75

41:                                               ; preds = %7
  call void @llvm.lifetime.start.p0(i64 4, ptr %16) #4
  store i32 2, ptr %16, align 4, !tbaa !55
  call void @llvm.lifetime.start.p0(i64 8, ptr %17) #4
  %42 = load ptr, ptr %9, align 8, !tbaa !6
  %43 = getelementptr inbounds nuw %struct.ssl_st, ptr %42, i32 0, i32 21
  %44 = load ptr, ptr %43, align 8, !tbaa !13
  %45 = getelementptr inbounds nuw %struct.cert_st, ptr %44, i32 0, i32 1
  %46 = load ptr, ptr %45, align 8, !tbaa !44
  %47 = call ptr @EVP_PKEY_CTX_new(ptr noundef %46, ptr noundef null)
  store ptr %47, ptr %17, align 8, !tbaa !76
  %48 = load ptr, ptr %17, align 8, !tbaa !76
  %49 = icmp eq ptr %48, null
  br i1 %49, label %50, label %51

50:                                               ; preds = %41
  br label %72

51:                                               ; preds = %41
  %52 = load i64, ptr %12, align 8, !tbaa !54
  store i64 %52, ptr %18, align 8, !tbaa !54
  %53 = load ptr, ptr %17, align 8, !tbaa !76
  %54 = call i32 @EVP_PKEY_sign_init(ptr noundef %53)
  %55 = icmp ne i32 %54, 0
  br i1 %55, label %56, label %68

56:                                               ; preds = %51
  %57 = load ptr, ptr %17, align 8, !tbaa !76
  %58 = load ptr, ptr %13, align 8, !tbaa !73
  %59 = call i32 @EVP_PKEY_CTX_set_signature_md(ptr noundef %57, ptr noundef %58)
  %60 = icmp ne i32 %59, 0
  br i1 %60, label %61, label %68

61:                                               ; preds = %56
  %62 = load ptr, ptr %17, align 8, !tbaa !76
  %63 = load ptr, ptr %10, align 8, !tbaa !53
  %64 = load ptr, ptr %14, align 8, !tbaa !53
  %65 = load i64, ptr %15, align 8, !tbaa !54
  %66 = call i32 @EVP_PKEY_sign(ptr noundef %62, ptr noundef %63, ptr noundef %18, ptr noundef %64, i64 noundef %65)
  %67 = icmp ne i32 %66, 0
  br i1 %67, label %69, label %68

68:                                               ; preds = %61, %56, %51
  br label %72

69:                                               ; preds = %61
  %70 = load i64, ptr %18, align 8, !tbaa !54
  %71 = load ptr, ptr %11, align 8, !tbaa !71
  store i64 %70, ptr %71, align 8, !tbaa !54
  store i32 0, ptr %16, align 4, !tbaa !55
  br label %72

72:                                               ; preds = %69, %68, %50
  %73 = load ptr, ptr %17, align 8, !tbaa !76
  call void @EVP_PKEY_CTX_free(ptr noundef %73)
  %74 = load i32, ptr %16, align 4, !tbaa !55
  store i32 %74, ptr %8, align 4
  call void @llvm.lifetime.end.p0(i64 8, ptr %17) #4
  call void @llvm.lifetime.end.p0(i64 4, ptr %16) #4
  br label %75

75:                                               ; preds = %72, %25
  %76 = load i32, ptr %8, align 4
  ret i32 %76
}