; Function Attrs: nounwind uwtable
define hidden i32 @ssl_private_key_sign(ptr noundef %0, ptr noundef %1, ptr noundef %2, i64 noundef %3, ptr noundef %4, ptr noundef %5, i64 noundef %6) local_unnamed_addr #0 {
  %8 = alloca i64, align 8
  %9 = getelementptr inbounds nuw i8, ptr %0, i64 136
  %10 = load ptr, ptr %9, align 8, !tbaa !6
  %11 = getelementptr inbounds nuw i8, ptr %10, i64 24
  %12 = load ptr, ptr %11, align 8, !tbaa !53
  %.not = icmp eq ptr %12, null
  br i1 %.not, label %17, label %13

13:                                               ; preds = %7
  %14 = getelementptr inbounds nuw i8, ptr %12, i64 16
  %15 = load ptr, ptr %14, align 8, !tbaa !59
  %16 = tail call i32 %15(ptr noundef nonnull %0, ptr noundef %1, ptr noundef %2, i64 noundef %3, ptr noundef %4, ptr noundef %5, i64 noundef %6) #6
  br label %31

17:                                               ; preds = %7
  %18 = getelementptr inbounds nuw i8, ptr %10, i64 8
  %19 = load ptr, ptr %18, align 8, !tbaa !38
  %20 = tail call ptr @EVP_PKEY_CTX_new(ptr noundef %19, ptr noundef null) #6
  %21 = icmp eq ptr %20, null
  br i1 %21, label %30, label %22

22:                                               ; preds = %17
  store i64 %3, ptr %8, align 8, !tbaa !60
  %23 = tail call i32 @EVP_PKEY_sign_init(ptr noundef nonnull %20) #6
  %.not25 = icmp eq i32 %23, 0
  br i1 %.not25, label %30, label %24

24:                                               ; preds = %22
  %25 = tail call i32 @EVP_PKEY_CTX_set_signature_md(ptr noundef nonnull %20, ptr noundef %4) #6
  %.not26 = icmp eq i32 %25, 0
  br i1 %.not26, label %30, label %26

26:                                               ; preds = %24
  %27 = call i32 @EVP_PKEY_sign(ptr noundef nonnull %20, ptr noundef %1, ptr noundef nonnull %8, ptr noundef %5, i64 noundef %6) #6
  %.not27 = icmp eq i32 %27, 0
  br i1 %.not27, label %30, label %28

28:                                               ; preds = %26
  %29 = load i64, ptr %8, align 8, !tbaa !60
  store i64 %29, ptr %2, align 8, !tbaa !60
  br label %30

30:                                               ; preds = %22, %24, %26, %17, %28
  %.022 = phi i32 [ 2, %17 ], [ 0, %28 ], [ 2, %26 ], [ 2, %24 ], [ 2, %22 ]
  call void @EVP_PKEY_CTX_free(ptr noundef %20) #6
  br label %31

31:                                               ; preds = %30, %13
  %.0 = phi i32 [ %16, %13 ], [ %.022, %30 ]
  ret i32 %.0
}